target datalayout = "e-m:e-p270:32:32-p271:32:32-p272:64:64-i64:64-i128:128-f80:128-n8:16:32:64-S128"
target triple = "x86_64-pc-linux-gnu"

%struct.fdt_header = type { i32, i32, i32, i32, i32, i32, i32, i32, i32, i32 }

; Function Attrs: inlinehint nounwind uwtable
define internal i32 @cpu_to_fdt32(i32 noundef %0) #2 {
  %2 = alloca i32, align 4
  store i32 %0, ptr %2, align 4
  %3 = getelementptr inbounds i8, ptr %2, i64 0
  %4 = load i8, ptr %3, align 4
  %5 = zext i8 %4 to i64
  %6 = shl i64 %5, 24
  %7 = getelementptr inbounds i8, ptr %2, i64 1
  %8 = load i8, ptr %7, align 1
  %9 = zext i8 %8 to i64
  %10 = shl i64 %9, 16
  %11 = or i64 %6, %10
  %12 = getelementptr inbounds i8, ptr %2, i64 2
  %13 = load i8, ptr %12, align 2
  %14 = zext i8 %13 to i64
  %15 = shl i64 %14, 8
  %16 = or i64 %11, %15
  %17 = getelementptr inbounds i8, ptr %2, i64 3
  %18 = load i8, ptr %17, align 1
  %19 = zext i8 %18 to i64
  %20 = or i64 %16, %19
  %21 = trunc i64 %20 to i32
  ret i32 %21
}

; Function Attrs: inlinehint nounwind uwtable
define internal i32 @fdt_data_size_(ptr noundef %0) #2 {
  %2 = alloca ptr, align 8
  store ptr %0, ptr %2, align 8
  %3 = load ptr, ptr %2, align 8
  %4 = getelementptr inbounds nuw %struct.fdt_header, ptr %3, i32 0, i32 3
  %5 = call i32 @fdt32_ld(ptr noundef %4)
  %6 = load ptr, ptr %2, align 8
  %7 = getelementptr inbounds nuw %struct.fdt_header, ptr %6, i32 0, i32 8
  %8 = call i32 @fdt32_ld(ptr noundef %7)
  %9 = add i32 %5, %8
  ret i32 %9
}

; Function Attrs: inlinehint nounwind uwtable
define internal void @fdt_set_off_dt_strings(ptr noundef %0, i32 noundef %1) #2 {
  %3 = alloca ptr, align 8
  %4 = alloca i32, align 4
  %5 = alloca ptr, align 8
  store ptr %0, ptr %3, align 8
  store i32 %1, ptr %4, align 4
  call void @llvm.lifetime.start.p0(i64 8, ptr %5) #7
  %6 = load ptr, ptr %3, align 8
  store ptr %6, ptr %5, align 8
  %7 = load i32, ptr %4, align 4
  %8 = call i32 @cpu_to_fdt32(i32 noundef %7)
  %9 = load ptr, ptr %5, align 8
  %10 = getelementptr inbounds nuw %struct.fdt_header, ptr %9, i32 0, i32 3
  store i32 %8, ptr %10, align 4
  call void @llvm.lifetime.end.p0(i64 8, ptr %5) #7
  ret void
}

; Function Attrs: inlinehint nounwind uwtable
define internal void @fdt_set_size_dt_struct(ptr noundef %0, i32 noundef %1) #2 {
  %3 = alloca ptr, align 8
  %4 = alloca i32, align 4
  %5 = alloca ptr, align 8
  store ptr %0, ptr %3, align 8
  store i32 %1, ptr %4, align 4
  call void @llvm.lifetime.start.p0(i64 8, ptr %5) #7
  %6 = load ptr, ptr %3, align 8
  store ptr %6, ptr %5, align 8
  %7 = load i32, ptr %4, align 4
  %8 = call i32 @cpu_to_fdt32(i32 noundef %7)
  %9 = load ptr, ptr %5, align 8
  %10 = getelementptr inbounds nuw %struct.fdt_header, ptr %9, i32 0, i32 9
  store i32 %8, ptr %10, align 4
  call void @llvm.lifetime.end.p0(i64 8, ptr %5) #7
  ret void
}

; Function Attrs: inlinehint nounwind uwtable
define internal i32 @fdt32_ld(ptr noundef %0) #2 {
  %2 = alloca ptr, align 8
  %3 = alloca ptr, align 8
  store ptr %0, ptr %2, align 8
  call void @llvm.lifetime.start.p0(i64 8, ptr %3) #7
  %4 = load ptr, ptr %2, align 8
  store ptr %4, ptr %3, align 8
  %5 = load ptr, ptr %3, align 8
  %6 = getelementptr inbounds i8, ptr %5, i64 0
  %7 = load i8, ptr %6, align 1
  %8 = zext i8 %7 to i32
  %9 = shl i32 %8, 24
  %10 = load ptr, ptr %3, align 8
  %11 = getelementptr inbounds i8, ptr %10, i64 1
  %12 = load i8, ptr %11, align 1
  %13 = zext i8 %12 to i32
  %14 = shl i32 %13, 16
  %15 = or i32 %9, %14
  %16 = load ptr, ptr %3, align 8
  %17 = getelementptr inbounds i8, ptr %16, i64 2
  %18 = load i8, ptr %17, align 1
  %19 = zext i8 %18 to i32
  %20 = shl i32 %19, 8
  %21 = or i32 %15, %20
  %22 = load ptr, ptr %3, align 8
  %23 = getelementptr inbounds i8, ptr %22, i64 3
  %24 = load i8, ptr %23, align 1
  %25 = zext i8 %24 to i32
  %26 = or i32 %21, %25
  call void @llvm.lifetime.end.p0(i64 8, ptr %3) #7
  ret i32 %26
}

; Function Attrs: nounwind uwtable
define internal i32 @fdt_splice_(ptr noundef %0, ptr noundef %1, i32 noundef %2, i32 noundef %3) #0 {
  %5 = alloca i32, align 4
  %6 = alloca ptr, align 8
  %7 = alloca ptr, align 8
  %8 = alloca i32, align 4
  %9 = alloca i32, align 4
  %10 = alloca ptr, align 8
  %11 = alloca i32, align 4
  %12 = alloca i64, align 8
  %13 = alloca i32, align 4
  store ptr %0, ptr %6, align 8
  store ptr %1, ptr %7, align 8
  store i32 %2, ptr %8, align 4
  store i32 %3, ptr %9, align 4
  call void @llvm.lifetime.start.p0(i64 8, ptr %10) #7
  %14 = load ptr, ptr %7, align 8
  store ptr %14, ptr %10, align 8
  call void @llvm.lifetime.start.p0(i64 4, ptr %11) #7
  %15 = load ptr, ptr %6, align 8
  %16 = call i32 @fdt_data_size_(ptr noundef %15)
  store i32 %16, ptr %11, align 4
  call void @llvm.lifetime.start.p0(i64 8, ptr %12) #7
  %17 = load ptr, ptr %10, align 8
  %18 = load ptr, ptr %6, align 8
  %19 = ptrtoint ptr %17 to i64
  %20 = ptrtoint ptr %18 to i64
  %21 = sub i64 %19, %20
  store i64 %21, ptr %12, align 8
  %22 = load i32, ptr %8, align 4
  %23 = icmp slt i32 %22, 0
  br i1 %23, label %39, label %24

24:                                               ; preds = %4
  %25 = load i64, ptr %12, align 8
  %26 = load i32, ptr %8, align 4
  %27 = sext i32 %26 to i64
  %28 = add i64 %25, %27
  %29 = load i64, ptr %12, align 8
  %30 = icmp ult i64 %28, %29
  br i1 %30, label %39, label %31

31:                                               ; preds = %24
  %32 = load i64, ptr %12, align 8
  %33 = load i32, ptr %8, align 4
  %34 = sext i32 %33 to i64
  %35 = add i64 %32, %34
  %36 = load i32, ptr %11, align 4
  %37 = zext i32 %36 to i64
  %38 = icmp ugt i64 %35, %37
  br i1 %38, label %39, label %40

39:                                               ; preds = %31, %24, %4
  store i32 -4, ptr %5, align 4
  store i32 1, ptr %13, align 4
  br label %82

40:                                               ; preds = %31
  %41 = load ptr, ptr %10, align 8
  %42 = load ptr, ptr %6, align 8
  %43 = icmp ult ptr %41, %42
  br i1 %43, label %50, label %44

44:                                               ; preds = %40
  %45 = load i32, ptr %11, align 4
  %46 = load i32, ptr %9, align 4
  %47 = add i32 %45, %46
  %48 = load i32, ptr %8, align 4
  %49 = icmp ult i32 %47, %48
  br i1 %49, label %50, label %51

50:                                               ; preds = %44, %40
  store i32 -4, ptr %5, align 4
  store i32 1, ptr %13, align 4
  br label %82

51:                                               ; preds = %44
  %52 = load i32, ptr %11, align 4
  %53 = load i32, ptr %8, align 4
  %54 = sub i32 %52, %53
  %55 = load i32, ptr %9, align 4
  %56 = add i32 %54, %55
  %57 = load ptr, ptr %6, align 8
  %58 = getelementptr inbounds nuw %struct.fdt_header, ptr %57, i32 0, i32 1
  %59 = call i32 @fdt32_ld(ptr noundef %58)
  %60 = icmp ugt i32 %56, %59
  br i1 %60, label %61, label %62

61:                                               ; preds = %51
  store i32 -3, ptr %5, align 4
  store i32 1, ptr %13, align 4
  br label %82

62:                                               ; preds = %51
  %63 = load ptr, ptr %10, align 8
  %64 = load i32, ptr %9, align 4
  %65 = sext i32 %64 to i64
  %66 = getelementptr inbounds i8, ptr %63, i64 %65
  %67 = load ptr, ptr %10, align 8
  %68 = load i32, ptr %8, align 4
  %69 = sext i32 %68 to i64
  %70 = getelementptr inbounds i8, ptr %67, i64 %69
  %71 = load ptr, ptr %6, align 8
  %72 = load i32, ptr %11, align 4
  %73 = zext i32 %72 to i64
  %74 = getelementptr inbounds nuw i8, ptr %71, i64 %73
  %75 = load ptr, ptr %10, align 8
  %76 = load i32, ptr %8, align 4
  %77 = sext i32 %76 to i64
  %78 = getelementptr inbounds i8, ptr %75, i64 %77
  %79 = ptrtoint ptr %74 to i64
  %80 = ptrtoint ptr %78 to i64
  %81 = sub i64 %79, %80
  call void @llvm.memmove.p0.p0.i64(ptr align 1 %66, ptr align 1 %70, i64 %81, i1 false)
  store i32 0, ptr %5, align 4
  store i32 1, ptr %13, align 4
  br label %82

82:                                               ; preds = %62, %61, %50, %39
  call void @llvm.lifetime.end.p0(i64 8, ptr %12) #7
  call void @llvm.lifetime.end.p0(i64 4, ptr %11) #7
  call void @llvm.lifetime.end.p0(i64 8, ptr %10) #7
  %83 = load i32, ptr %5, align 4
  ret i32 %83
}

; Function Attrs: nounwind uwtable
define internal i32 @fdt_splice_struct_(ptr noundef %0, ptr noundef %1, i32 noundef %2, i32 noundef %3) #0 {
  %5 = alloca i32, align 4
  %6 = alloca ptr, align 8
  %7 = alloca ptr, align 8
  %8 = alloca i32, align 4
  %9 = alloca i32, align 4
  %10 = alloca i32, align 4
  %11 = alloca i32, align 4
  %12 = alloca i32, align 4
  store ptr %0, ptr %6, align 8
  store ptr %1, ptr %7, align 8
  store i32 %2, ptr %8, align 4
  store i32 %3, ptr %9, align 4
  call void @llvm.lifetime.start.p0(i64 4, ptr %10) #7
  %13 = load i32, ptr %9, align 4
  %14 = load i32, ptr %8, align 4
  %15 = sub i32 %13, %14
  store i32 %15, ptr %10, align 4
  call void @llvm.lifetime.start.p0(i64 4, ptr %11) #7
  store i32 0, ptr %11, align 4, !annotation !4
  %16 = load ptr, ptr %6, align 8
  %17 = load ptr, ptr %7, align 8
  %18 = load i32, ptr %8, align 4
  %19 = load i32, ptr %9, align 4
  %20 = call i32 @fdt_splice_(ptr noundef %16, ptr noundef %17, i32 noundef %18, i32 noundef %19)
  store i32 %20, ptr %11, align 4
  %21 = icmp ne i32 %20, 0
  br i1 %21, label %22, label %24

22:                                               ; preds = %4
  %23 = load i32, ptr %11, align 4
  store i32 %23, ptr %5, align 4
  store i32 1, ptr %12, align 4
  br label %37

24:                                               ; preds = %4
  %25 = load ptr, ptr %6, align 8
  %26 = load ptr, ptr %6, align 8
  %27 = getelementptr inbounds nuw %struct.fdt_header, ptr %26, i32 0, i32 9
  %28 = call i32 @fdt32_ld(ptr noundef %27)
  %29 = load i32, ptr %10, align 4
  %30 = add i32 %28, %29
  call void @fdt_set_size_dt_struct(ptr noundef %25, i32 noundef %30)
  %31 = load ptr, ptr %6, align 8
  %32 = load ptr, ptr %6, align 8
  %33 = getelementptr inbounds nuw %struct.fdt_header, ptr %32, i32 0, i32 3
  %34 = call i32 @fdt32_ld(ptr noundef %33)
  %35 = load i32, ptr %10, align 4
  %36 = add i32 %34, %35
  call void @fdt_set_off_dt_strings(ptr noundef %31, i32 noundef %36)
  store i32 0, ptr %5, align 4
  store i32 1, ptr %12, align 4
  br label %37

37:                                               ; preds = %24, %22
  call void @llvm.lifetime.end.p0(i64 4, ptr %11) #7
  call void @llvm.lifetime.end.p0(i64 4, ptr %10) #7
  %38 = load i32, ptr %5, align 4
  ret i32 %38
}