; Function Attrs: mustprogress nofree norecurse nosync nounwind willreturn memory(argmem: readwrite) uwtable
define internal fastcc range(i32 -4, 1) i32 @fdt_splice_struct_(ptr noundef %0, ptr noundef %1, i32 noundef %2, i32 noundef %3) unnamed_addr #3 {
  %5 = getelementptr inbounds nuw i8, ptr %0, i64 12
  %6 = load i8, ptr %5, align 1
  %7 = zext i8 %6 to i32
  %8 = shl nuw i32 %7, 24
  %9 = getelementptr inbounds nuw i8, ptr %0, i64 13
  %10 = load i8, ptr %9, align 1
  %11 = zext i8 %10 to i32
  %12 = shl nuw nsw i32 %11, 16
  %13 = or disjoint i32 %12, %8
  %14 = getelementptr inbounds nuw i8, ptr %0, i64 14
  %15 = load i8, ptr %14, align 1
  %16 = zext i8 %15 to i32
  %17 = shl nuw nsw i32 %16, 8
  %18 = or disjoint i32 %13, %17
  %19 = getelementptr inbounds nuw i8, ptr %0, i64 15
  %20 = load i8, ptr %19, align 1
  %21 = zext i8 %20 to i32
  %22 = or disjoint i32 %18, %21
  %23 = getelementptr inbounds nuw i8, ptr %0, i64 32
  %24 = load i8, ptr %23, align 1
  %25 = zext i8 %24 to i32
  %26 = shl nuw i32 %25, 24
  %27 = getelementptr inbounds nuw i8, ptr %0, i64 33
  %28 = load i8, ptr %27, align 1
  %29 = zext i8 %28 to i32
  %30 = shl nuw nsw i32 %29, 16
  %31 = or disjoint i32 %30, %26
  %32 = getelementptr inbounds nuw i8, ptr %0, i64 34
  %33 = load i8, ptr %32, align 1
  %34 = zext i8 %33 to i32
  %35 = shl nuw nsw i32 %34, 8
  %36 = or disjoint i32 %31, %35
  %37 = getelementptr inbounds nuw i8, ptr %0, i64 35
  %38 = load i8, ptr %37, align 1
  %39 = zext i8 %38 to i32
  %40 = or disjoint i32 %36, %39
  %41 = add i32 %40, %22
  %42 = icmp slt i32 %2, 0
  br i1 %42, label %fdt_splice_.exit.thread, label %43

43:                                               ; preds = %4
  %44 = ptrtoint ptr %1 to i64
  %45 = ptrtoint ptr %0 to i64
  %46 = sub i64 %44, %45
  %47 = zext nneg i32 %2 to i64
  %48 = add i64 %46, %47
  %49 = icmp ult i64 %48, %46
  br i1 %49, label %fdt_splice_.exit.thread, label %50

50:                                               ; preds = %43
  %51 = zext i32 %41 to i64
  %52 = icmp ugt i64 %48, %51
  br i1 %52, label %fdt_splice_.exit.thread, label %53

53:                                               ; preds = %50
  %54 = icmp ult ptr %1, %0
  %55 = add i32 %41, %3
  %56 = icmp ult i32 %55, %2
  %or.cond.i = select i1 %54, i1 true, i1 %56
  br i1 %or.cond.i, label %fdt_splice_.exit.thread, label %57

57:                                               ; preds = %53
  %58 = sub i32 %3, %2
  %59 = add i32 %58, %41
  %60 = getelementptr inbounds nuw i8, ptr %0, i64 4
  %61 = load i8, ptr %60, align 1
  %62 = zext i8 %61 to i32
  %63 = shl nuw i32 %62, 24
  %64 = getelementptr inbounds nuw i8, ptr %0, i64 5
  %65 = load i8, ptr %64, align 1
  %66 = zext i8 %65 to i32
  %67 = shl nuw nsw i32 %66, 16
  %68 = or disjoint i32 %67, %63
  %69 = getelementptr inbounds nuw i8, ptr %0, i64 6
  %70 = load i8, ptr %69, align 1
  %71 = zext i8 %70 to i32
  %72 = shl nuw nsw i32 %71, 8
  %73 = or disjoint i32 %68, %72
  %74 = getelementptr inbounds nuw i8, ptr %0, i64 7
  %75 = load i8, ptr %74, align 1
  %76 = zext i8 %75 to i32
  %77 = or disjoint i32 %73, %76
  %78 = icmp ugt i32 %59, %77
  br i1 %78, label %fdt_splice_.exit.thread, label %79

79:                                               ; preds = %57
  %80 = sext i32 %3 to i64
  %81 = getelementptr inbounds i8, ptr %1, i64 %80
  %82 = getelementptr inbounds nuw i8, ptr %1, i64 %47
  %83 = getelementptr inbounds nuw i8, ptr %0, i64 %51
  %84 = ptrtoint ptr %83 to i64
  %85 = ptrtoint ptr %82 to i64
  %86 = sub i64 %84, %85
  tail call void @llvm.memmove.p0.p0.i64(ptr align 1 %81, ptr align 1 %82, i64 %86, i1 false)
  %87 = getelementptr inbounds nuw i8, ptr %0, i64 36
  %88 = load i8, ptr %87, align 1
  %89 = zext i8 %88 to i32
  %90 = shl nuw i32 %89, 24
  %91 = getelementptr inbounds nuw i8, ptr %0, i64 37
  %92 = load i8, ptr %91, align 1
  %93 = zext i8 %92 to i32
  %94 = shl nuw nsw i32 %93, 16
  %95 = or disjoint i32 %94, %90
  %96 = getelementptr inbounds nuw i8, ptr %0, i64 38
  %97 = load i8, ptr %96, align 1
  %98 = zext i8 %97 to i32
  %99 = shl nuw nsw i32 %98, 8
  %100 = or disjoint i32 %95, %99
  %101 = getelementptr inbounds nuw i8, ptr %0, i64 39
  %102 = load i8, ptr %101, align 1
  %103 = zext i8 %102 to i32
  %104 = or disjoint i32 %100, %103
  %105 = add i32 %104, %58
  %rev.i.i = tail call noundef i32 @llvm.bswap.i32(i32 %105)
  store i32 %rev.i.i, ptr %87, align 4
  %106 = load i8, ptr %5, align 1
  %107 = zext i8 %106 to i32
  %108 = shl nuw i32 %107, 24
  %109 = load i8, ptr %9, align 1
  %110 = zext i8 %109 to i32
  %111 = shl nuw nsw i32 %110, 16
  %112 = or disjoint i32 %111, %108
  %113 = load i8, ptr %14, align 1
  %114 = zext i8 %113 to i32
  %115 = shl nuw nsw i32 %114, 8
  %116 = or disjoint i32 %112, %115
  %117 = load i8, ptr %19, align 1
  %118 = zext i8 %117 to i32
  %119 = or disjoint i32 %116, %118
  %120 = add i32 %119, %58
  %rev.i.i14 = tail call noundef i32 @llvm.bswap.i32(i32 %120)
  store i32 %rev.i.i14, ptr %5, align 4
  br label %fdt_splice_.exit.thread

fdt_splice_.exit.thread:                          ; preds = %57, %53, %4, %43, %50, %79
  %.0 = phi i32 [ 0, %79 ], [ -3, %57 ], [ -4, %53 ], [ -4, %4 ], [ -4, %43 ], [ -4, %50 ]
  ret i32 %.0
}